; Function Attrs: nounwind uwtable
define internal range(i32 -2147483648, 1) i32 @h266_metadata_update_fragment(ptr noundef %0, ptr noundef readnone captures(address_is_null) %1, ptr noundef %2) #0 {
  %4 = getelementptr inbounds nuw i8, ptr %0, i64 16
  %5 = load ptr, ptr %4, align 8, !tbaa !4
  %6 = getelementptr inbounds nuw i8, ptr %2, i64 32
  %7 = load i32, ptr %6, align 8, !tbaa !14
  %.not = icmp eq i32 %7, 0
  br i1 %.not, label %18, label %8

8:                                                ; preds = %3
  %9 = getelementptr inbounds nuw i8, ptr %2, i64 40
  %10 = load ptr, ptr %9, align 8, !tbaa !20
  %11 = load i32, ptr %10, align 8, !tbaa !21
  %12 = icmp eq i32 %11, 20
  br i1 %12, label %13, label %18

13:                                               ; preds = %8
  %14 = getelementptr inbounds nuw i8, ptr %5, i64 88
  %15 = load i32, ptr %14, align 8, !tbaa !23
  %16 = icmp eq i32 %15, 2
  br i1 %16, label %17, label %.thread123

17:                                               ; preds = %13
  tail call void @ff_cbs_delete_unit(ptr noundef nonnull %2, i32 noundef 0) #3
  br label %.thread123

18:                                               ; preds = %8, %3
  %.not85 = icmp eq ptr %1, null
  br i1 %.not85, label %.thread123, label %19

19:                                               ; preds = %18
  %20 = getelementptr inbounds nuw i8, ptr %5, i64 88
  %21 = load i32, ptr %20, align 8, !tbaa !23
  %22 = icmp eq i32 %21, 1
  br i1 %22, label %23, label %.thread123

23:                                               ; preds = %19
  %24 = getelementptr inbounds nuw i8, ptr %5, i64 80
  %25 = icmp sgt i32 %7, 0
  br i1 %25, label %.lr.ph, label %.thread116

.lr.ph:                                           ; preds = %23
  %26 = getelementptr inbounds nuw i8, ptr %2, i64 40
  %27 = load ptr, ptr %26, align 8, !tbaa !20
  %wide.trip.count = zext nneg i32 %7 to i64
  br label %28

28:                                               ; preds = %.lr.ph, %53
  %indvars.iv = phi i64 [ 0, %.lr.ph ], [ %indvars.iv.next, %53 ]
  %.059135 = phi ptr [ null, %.lr.ph ], [ %.160.ph, %53 ]
  %.061134 = phi ptr [ null, %.lr.ph ], [ %.263.ph, %53 ]
  %.066133 = phi i32 [ 0, %.lr.ph ], [ %.268.ph, %53 ]
  %.070132 = phi i32 [ 8, %.lr.ph ], [ %.272.ph, %53 ]
  %.077131 = phi i8 [ 0, %.lr.ph ], [ %.279.ph, %53 ]
  %29 = getelementptr inbounds nuw %struct.CodedBitstreamUnit, ptr %27, i64 %indvars.iv, i32 5
  %30 = load ptr, ptr %29, align 8, !tbaa !30
  %.not86 = icmp eq ptr %30, null
  br i1 %.not86, label %53, label %31

31:                                               ; preds = %28
  %32 = getelementptr inbounds nuw i8, ptr %30, i64 2
  %33 = load i8, ptr %32, align 1, !tbaa !31
  %34 = zext i8 %33 to i32
  %.not87 = icmp slt i32 %.070132, %34
  %35 = add nsw i32 %34, -1
  %spec.select = select i1 %.not87, i32 %.070132, i32 %35
  %36 = getelementptr inbounds nuw i8, ptr %30, i64 1
  %37 = load i8, ptr %36, align 1, !tbaa !32
  switch i8 %37, label %53 [
    i8 19, label %38
    i8 10, label %40
    i8 9, label %40
    i8 8, label %40
    i8 7, label %40
    i8 3, label %40
    i8 2, label %40
    i8 1, label %40
    i8 0, label %40
  ]

38:                                               ; preds = %31
  %39 = getelementptr inbounds nuw i8, ptr %30, i64 4
  br label %53

40:                                               ; preds = %31, %31, %31, %31, %31, %31, %31, %31
  %41 = load i8, ptr %30, align 1, !tbaa !33
  %42 = getelementptr inbounds nuw i8, ptr %30, i64 1345
  %43 = load i8, ptr %42, align 1, !tbaa !34
  %44 = icmp eq i8 %43, 0
  %spec.store.select = select i1 %44, i32 2, i32 %.066133
  %45 = icmp eq i8 %43, 1
  %46 = tail call i32 @llvm.smax.i32(i32 %spec.store.select, i32 1)
  %spec.store.select5 = select i1 %45, i32 %46, i32 %spec.store.select
  %.not88 = icmp eq ptr %.059135, null
  br i1 %.not88, label %47, label %53

47:                                               ; preds = %40
  %48 = getelementptr inbounds nuw i8, ptr %30, i64 4
  %49 = load i8, ptr %48, align 4, !tbaa !41
  %.not89 = icmp eq i8 %49, 0
  br i1 %.not89, label %52, label %50

50:                                               ; preds = %47
  %51 = getelementptr inbounds nuw i8, ptr %30, i64 6
  br label %53

52:                                               ; preds = %47
  %.not90 = icmp eq ptr %.061134, null
  br i1 %.not90, label %.thread116, label %53

53:                                               ; preds = %31, %52, %28, %38, %50, %40
  %.279.ph = phi i8 [ %41, %50 ], [ %41, %40 ], [ %.077131, %38 ], [ %.077131, %28 ], [ %41, %52 ], [ %.077131, %31 ]
  %.272.ph = phi i32 [ %spec.select, %50 ], [ %spec.select, %40 ], [ %spec.select, %38 ], [ %.070132, %28 ], [ %spec.select, %52 ], [ %spec.select, %31 ]
  %.268.ph = phi i32 [ %spec.store.select5, %50 ], [ %spec.store.select5, %40 ], [ %.066133, %38 ], [ %.066133, %28 ], [ %spec.store.select5, %52 ], [ %.066133, %31 ]
  %.263.ph = phi ptr [ %51, %50 ], [ %.061134, %40 ], [ %39, %38 ], [ %.061134, %28 ], [ %.061134, %52 ], [ %.061134, %31 ]
  %.160.ph = phi ptr [ %30, %50 ], [ %.059135, %40 ], [ %.059135, %38 ], [ %.059135, %28 ], [ %30, %52 ], [ %.059135, %31 ]
  %indvars.iv.next = add nuw nsw i64 %indvars.iv, 1
  %exitcond.not = icmp eq i64 %indvars.iv.next, %wide.trip.count
  br i1 %exitcond.not, label %._crit_edge, label %28, !llvm.loop !42

._crit_edge:                                      ; preds = %53
  %.not91 = icmp eq ptr %.263.ph, null
  br i1 %.not91, label %.thread116, label %54

.thread116:                                       ; preds = %52, %23, %._crit_edge
  tail call void (ptr, i32, ptr, ...) @av_log(ptr noundef %0, i32 noundef 16, ptr noundef nonnull @.str.12) #3
  br label %.thread123

54:                                               ; preds = %._crit_edge
  %55 = trunc nuw nsw i32 %.268.ph to i8
  %56 = trunc i32 %.272.ph to i8
  %57 = add i8 %56, 1
  store i8 %.279.ph, ptr %24, align 1, !tbaa !44
  %.sroa.2.0..sroa_idx = getelementptr inbounds nuw i8, ptr %5, i64 81
  store i8 20, ptr %.sroa.2.0..sroa_idx, align 1, !tbaa !44
  %.sroa.3.0..sroa_idx = getelementptr inbounds nuw i8, ptr %5, i64 82
  store i8 %57, ptr %.sroa.3.0..sroa_idx, align 1, !tbaa !44
  %.sroa.4.0..sroa_idx = getelementptr inbounds nuw i8, ptr %5, i64 83
  store i8 0, ptr %.sroa.4.0..sroa_idx, align 1, !tbaa !44
  %58 = getelementptr inbounds nuw i8, ptr %5, i64 85
  store i8 %55, ptr %58, align 1, !tbaa !45
  %59 = load i8, ptr %.263.ph, align 2, !tbaa !46
  %60 = getelementptr inbounds nuw i8, ptr %5, i64 84
  store i8 %59, ptr %60, align 1, !tbaa !47
  %61 = tail call i32 @ff_cbs_insert_unit_content(ptr noundef nonnull %2, i32 noundef 0, i32 noundef 20, ptr noundef nonnull %24, ptr noundef null) #3
  %62 = icmp slt i32 %61, 0
  br i1 %62, label %63, label %.thread123

63:                                               ; preds = %54
  tail call void (ptr, i32, ptr, ...) @av_log(ptr noundef %0, i32 noundef 16, ptr noundef nonnull @.str.13) #3
  br label %.thread123

.thread123:                                       ; preds = %.thread116, %63, %17, %13, %19, %18, %54
  %.1 = phi i32 [ 0, %54 ], [ 0, %18 ], [ 0, %19 ], [ 0, %13 ], [ 0, %17 ], [ -1094995529, %.thread116 ], [ %61, %63 ]
  ret i32 %.1
}